target datalayout = "e-m:e-p270:32:32-p271:32:32-p272:64:64-i64:64-i128:128-f80:128-n8:16:32:64-S128"
target triple = "x86_64-unknown-linux-gnu"

%"class.pugi::xml_node" = type { ptr }
%"struct.pugi::xml_node_struct" = type { i64, ptr, ptr, ptr, ptr, ptr, ptr, ptr }

@_ZN4pugi8xml_nodeC1Ev = unnamed_addr alias void (ptr), ptr @_ZN4pugi8xml_nodeC2Ev
@_ZN4pugi8xml_nodeC1EPNS_15xml_node_structE = unnamed_addr alias void (ptr, ptr), ptr @_ZN4pugi8xml_nodeC2EPNS_15xml_node_structE

; Function Attrs: mustprogress uwtable
define ptr @_ZNK4pugi12xml_document16document_elementEv(ptr noundef nonnull align 8 dereferenceable(208) %this) #2 align 2 {
entry:
  %retval = alloca %"class.pugi::xml_node", align 8
  %this.addr = alloca ptr, align 8
  %i = alloca ptr, align 8
  store ptr %this, ptr %this.addr, align 8
  %this1 = load ptr, ptr %this.addr, align 8
  %_root = getelementptr inbounds %"class.pugi::xml_node", ptr %this1, i32 0, i32 0
  %0 = load ptr, ptr %_root, align 8
  %first_child = getelementptr inbounds %"struct.pugi::xml_node_struct", ptr %0, i32 0, i32 4
  %1 = load ptr, ptr %first_child, align 8
  store ptr %1, ptr %i, align 8
  br label %for.cond

for.cond:                                         ; preds = %for.inc, %entry
  %2 = load ptr, ptr %i, align 8
  %tobool = icmp ne ptr %2, null
  br i1 %tobool, label %for.body, label %for.end

for.body:                                         ; preds = %for.cond
  %3 = load ptr, ptr %i, align 8
  %header = getelementptr inbounds %"struct.pugi::xml_node_struct", ptr %3, i32 0, i32 0
  %4 = load i64, ptr %header, align 8
  %and = and i64 %4, 15
  %conv = trunc i64 %and to i32
  %cmp = icmp eq i32 %conv, 2
  br i1 %cmp, label %if.then, label %if.end

if.then:                                          ; preds = %for.body
  %5 = load ptr, ptr %i, align 8
  call void @_ZN4pugi8xml_nodeC1EPNS_15xml_node_structE(ptr noundef nonnull align 8 dereferenceable(8) %retval, ptr noundef %5)
  br label %return

if.end:                                           ; preds = %for.body
  br label %for.inc

for.inc:                                          ; preds = %if.end
  %6 = load ptr, ptr %i, align 8
  %next_sibling = getelementptr inbounds %"struct.pugi::xml_node_struct", ptr %6, i32 0, i32 6
  %7 = load ptr, ptr %next_sibling, align 8
  store ptr %7, ptr %i, align 8
  br label %for.cond, !llvm.loop !43

for.end:                                          ; preds = %for.cond
  call void @_ZN4pugi8xml_nodeC1Ev(ptr noundef nonnull align 8 dereferenceable(8) %retval)
  br label %return

return:                                           ; preds = %for.end, %if.then
  %coerce.dive = getelementptr inbounds %"class.pugi::xml_node", ptr %retval, i32 0, i32 0
  %8 = load ptr, ptr %coerce.dive, align 8
  ret ptr %8
}