; Function Attrs: mustprogress uwtable
define ptr @_ZNK4pugi12xml_document16document_elementEv(ptr nocapture noundef nonnull readonly align 8 dereferenceable(208) %this) local_unnamed_addr #6 align 2 {
entry:
  %retval = alloca %"class.pugi::xml_node", align 8
  %0 = load ptr, ptr %this, align 8
  %first_child = getelementptr inbounds i8, ptr %0, i64 32
  %i.06 = load ptr, ptr %first_child, align 8
  %tobool.not7 = icmp eq ptr %i.06, null
  br i1 %tobool.not7, label %for.end, label %for.body

for.body:                                         ; preds = %entry, %for.inc
  %i.08 = phi ptr [ %i.0, %for.inc ], [ %i.06, %entry ]
  %1 = load i64, ptr %i.08, align 8
  %conv4 = and i64 %1, 15
  %cmp = icmp eq i64 %conv4, 2
  br i1 %cmp, label %if.then, label %for.inc

if.then:                                          ; preds = %for.body
  call void @_ZN4pugi8xml_nodeC1EPNS_15xml_node_structE(ptr noundef nonnull align 8 dereferenceable(8) %retval, ptr noundef nonnull %i.08)
  br label %return

for.inc:                                          ; preds = %for.body
  %next_sibling = getelementptr inbounds i8, ptr %i.08, i64 48
  %i.0 = load ptr, ptr %next_sibling, align 8
  %tobool.not = icmp eq ptr %i.0, null
  br i1 %tobool.not, label %for.end, label %for.body, !llvm.loop !156

for.end:                                          ; preds = %for.inc, %entry
  call void @_ZN4pugi8xml_nodeC1Ev(ptr noundef nonnull align 8 dereferenceable(8) %retval)
  br label %return

return:                                           ; preds = %for.end, %if.then
  %2 = load ptr, ptr %retval, align 8
  ret ptr %2
}